(dp0
Vengine
p1
Vxelatex
p2
sVpackages
p3
c__builtin__
set
p4
((lp5
Vkotex
p6
atp7
Rp8
sVfiles_with_guttermarks
p9
g4
((lp10
S'errata.tex'
p11
aV/Users/j/Documents/lecture/_latest_resources/IntroEcon/_slides/./errata.tex
p12
atp13
Rp14
sVsynctex
p15
I01
s.